#include <math.h>
#include <stdio.h>
#include <stdlib.h>
#include <string.h>

int main(){
	int i,n,j;
	char s[100][11],z[11];
	int g[100],c;
	scanf("%d",&n);
	for(i=0;i<n;i++){
		scanf("%s %d",s[i],&g[i]);
	}
	for(i=0;i<n;i++){
		for(j=1;j<n-i;j++){
			if(g[j-1]<g[j]&&g[j]>=60){
				strcpy(z,s[j-1]);strcpy(s[j-1],s[j]);strcpy(s[j],z);
				c=g[j-1];g[j-1]=g[j];g[j]=c;
			}
	}
	}
	for(i=0;i<n-1;i++){
		printf("%s\n",s[i]);
	}
	if(i==n-1){
		printf("%s",s[i]);
	}
	return 0;
}